	.section	__TEXT,__text,regular,pure_instructions
	.macosx_version_min 10, 11
	.file	1 "/Applications/Xcode.app/Contents/Developer/Toolchains/XcodeDefault.xctoolchain/usr/bin/../include/c++/v1" "__config"
	.file	2 "/Applications/Xcode.app/Contents/Developer/Toolchains/XcodeDefault.xctoolchain/usr/bin/../include/c++/v1" "atomic"
	.file	3 "/Applications/Xcode.app/Contents/Developer/Platforms/MacOSX.platform/Developer/SDKs/MacOSX10.11.sdk/usr/include" "time.h"
	.file	4 "/Users/ayrtex/Documents/Habilite/NeoKI/NeoKI" "semaphore.hpp"
	.file	5 "/Applications/Xcode.app/Contents/Developer/Platforms/MacOSX.platform/Developer/SDKs/MacOSX10.11.sdk/usr/include/sys/_pthread" "_pthread_types.h"
	.file	6 "/Applications/Xcode.app/Contents/Developer/Platforms/MacOSX.platform/Developer/SDKs/MacOSX10.11.sdk/usr/include/sys/_pthread" "_pthread_mutex_t.h"
	.file	7 "/Applications/Xcode.app/Contents/Developer/Toolchains/XcodeDefault.xctoolchain/usr/bin/../include/c++/v1" "__mutex_base"
	.file	8 "/Applications/Xcode.app/Contents/Developer/Platforms/MacOSX.platform/Developer/SDKs/MacOSX10.11.sdk/usr/include/sys/_pthread" "_pthread_cond_t.h"
	.file	9 "/Applications/Xcode.app/Contents/Developer/Toolchains/XcodeDefault.xctoolchain/usr/bin/../include/c++/v1" "chrono"
	.file	10 "/Applications/Xcode.app/Contents/Developer/Platforms/MacOSX.platform/Developer/SDKs/MacOSX10.11.sdk/usr/include/_types" "_intmax_t.h"
	.file	11 "/Applications/Xcode.app/Contents/Developer/Toolchains/XcodeDefault.xctoolchain/usr/bin/../include/c++/v1" "ratio"
	.file	12 "/Applications/Xcode.app/Contents/Developer/Platforms/MacOSX.platform/Developer/SDKs/MacOSX10.11.sdk/usr/include/i386" "_types.h"
	.file	13 "/Applications/Xcode.app/Contents/Developer/Platforms/MacOSX.platform/Developer/SDKs/MacOSX10.11.sdk/usr/include/sys/_types" "_time_t.h"
	.file	14 "/Applications/Xcode.app/Contents/Developer/Toolchains/XcodeDefault.xctoolchain/usr/bin/../lib/clang/7.3.0/include" "stddef.h"
	.file	15 "/Applications/Xcode.app/Contents/Developer/Toolchains/XcodeDefault.xctoolchain/usr/bin/../lib/clang/7.3.0/include" "__stddef_max_align_t.h"
	.file	16 "/Applications/Xcode.app/Contents/Developer/Platforms/MacOSX.platform/Developer/SDKs/MacOSX10.11.sdk/usr/include/sys/_types" "_int8_t.h"
	.file	17 "/Applications/Xcode.app/Contents/Developer/Platforms/MacOSX.platform/Developer/SDKs/MacOSX10.11.sdk/usr/include/sys/_types" "_int16_t.h"
	.file	18 "/Applications/Xcode.app/Contents/Developer/Platforms/MacOSX.platform/Developer/SDKs/MacOSX10.11.sdk/usr/include/sys/_types" "_int32_t.h"
	.file	19 "/Applications/Xcode.app/Contents/Developer/Platforms/MacOSX.platform/Developer/SDKs/MacOSX10.11.sdk/usr/include/sys/_types" "_int64_t.h"
	.file	20 "/Applications/Xcode.app/Contents/Developer/Platforms/MacOSX.platform/Developer/SDKs/MacOSX10.11.sdk/usr/include/_types" "_uint8_t.h"
	.file	21 "/Applications/Xcode.app/Contents/Developer/Platforms/MacOSX.platform/Developer/SDKs/MacOSX10.11.sdk/usr/include/_types" "_uint16_t.h"
	.file	22 "/Applications/Xcode.app/Contents/Developer/Platforms/MacOSX.platform/Developer/SDKs/MacOSX10.11.sdk/usr/include/_types" "_uint32_t.h"
	.file	23 "/Applications/Xcode.app/Contents/Developer/Platforms/MacOSX.platform/Developer/SDKs/MacOSX10.11.sdk/usr/include/_types" "_uint64_t.h"
	.file	24 "/Applications/Xcode.app/Contents/Developer/Platforms/MacOSX.platform/Developer/SDKs/MacOSX10.11.sdk/usr/include" "stdint.h"
	.file	25 "/Applications/Xcode.app/Contents/Developer/Platforms/MacOSX.platform/Developer/SDKs/MacOSX10.11.sdk/usr/include/sys/_types" "_intptr_t.h"
	.file	26 "/Applications/Xcode.app/Contents/Developer/Platforms/MacOSX.platform/Developer/SDKs/MacOSX10.11.sdk/usr/include/sys/_types" "_uintptr_t.h"
	.file	27 "/Applications/Xcode.app/Contents/Developer/Platforms/MacOSX.platform/Developer/SDKs/MacOSX10.11.sdk/usr/include/_types" "_uintmax_t.h"
	.file	28 "/Applications/Xcode.app/Contents/Developer/Platforms/MacOSX.platform/Developer/SDKs/MacOSX10.11.sdk/usr/include/sys/_types" "_clock_t.h"
	.file	29 "/Applications/Xcode.app/Contents/Developer/Toolchains/XcodeDefault.xctoolchain/usr/bin/../include/c++/v1" "tuple"
	.file	30 "/Applications/Xcode.app/Contents/Developer/Platforms/MacOSX.platform/Developer/SDKs/MacOSX10.11.sdk/usr/include" "string.h"
	.globl	__ZN9SemaphoreC2Em
	.align	4, 0x90
__ZN9SemaphoreC2Em:                     ## @_ZN9SemaphoreC2Em
Lfunc_begin0:
	.file	31 "/Users/ayrtex/Documents/Habilite/NeoKI/NeoKI" "semaphore.cpp"
	.loc	31 12 0                 ## /Users/ayrtex/Documents/Habilite/NeoKI/NeoKI/semaphore.cpp:12:0
	.cfi_startproc
## BB#0:
	pushq	%rbp
Ltmp0:
	.cfi_def_cfa_offset 16
Ltmp1:
	.cfi_offset %rbp, -16
	movq	%rsp, %rbp
Ltmp2:
	.cfi_def_cfa_register %rbp
	subq	$176, %rsp
	xorl	%eax, %eax
	movl	$40, %ecx
	movl	%ecx, %edx
	movl	$56, %ecx
	movl	%ecx, %r8d
	movq	%rdi, -104(%rbp)
	movq	%rsi, -112(%rbp)
	movq	-104(%rbp), %rsi
	.loc	31 11 42 prologue_end   ## /Users/ayrtex/Documents/Habilite/NeoKI/NeoKI/semaphore.cpp:11:42
Ltmp3:
	movq	-112(%rbp), %rdi
	.loc	31 11 39 is_stmt 0      ## /Users/ayrtex/Documents/Habilite/NeoKI/NeoKI/semaphore.cpp:11:39
	movq	%rsi, -88(%rbp)
	movq	%rdi, -96(%rbp)
	movq	-88(%rbp), %rdi
	.loc	2 1004 63 is_stmt 1     ## /Applications/Xcode.app/Contents/Developer/Toolchains/XcodeDefault.xctoolchain/usr/bin/../include/c++/v1/atomic:1004:63
Ltmp4:
	movq	-96(%rbp), %r9
	movq	%rdi, -72(%rbp)
	movq	%r9, -80(%rbp)
	movq	-72(%rbp), %rdi
	.loc	2 1004 58 is_stmt 0     ## /Applications/Xcode.app/Contents/Developer/Toolchains/XcodeDefault.xctoolchain/usr/bin/../include/c++/v1/atomic:1004:58
Ltmp5:
	movq	-80(%rbp), %r9
	.loc	2 1004 51               ## /Applications/Xcode.app/Contents/Developer/Toolchains/XcodeDefault.xctoolchain/usr/bin/../include/c++/v1/atomic:1004:51
	movq	%rdi, -56(%rbp)
	movq	%r9, -64(%rbp)
	movq	-56(%rbp), %rdi
	.loc	2 923 65 is_stmt 1      ## /Applications/Xcode.app/Contents/Developer/Toolchains/XcodeDefault.xctoolchain/usr/bin/../include/c++/v1/atomic:923:65
Ltmp6:
	movq	-64(%rbp), %r9
	.loc	2 923 58 is_stmt 0      ## /Applications/Xcode.app/Contents/Developer/Toolchains/XcodeDefault.xctoolchain/usr/bin/../include/c++/v1/atomic:923:58
	movq	%rdi, -40(%rbp)
	movq	%r9, -48(%rbp)
	movq	-40(%rbp), %rdi
	.loc	2 900 63 is_stmt 1      ## /Applications/Xcode.app/Contents/Developer/Toolchains/XcodeDefault.xctoolchain/usr/bin/../include/c++/v1/atomic:900:63
Ltmp7:
	movq	-48(%rbp), %r9
	.loc	2 900 58 is_stmt 0      ## /Applications/Xcode.app/Contents/Developer/Toolchains/XcodeDefault.xctoolchain/usr/bin/../include/c++/v1/atomic:900:58
	movq	%r9, (%rdi)
Ltmp8:
	.loc	31 11 12 is_stmt 1      ## /Users/ayrtex/Documents/Habilite/NeoKI/NeoKI/semaphore.cpp:11:12
	movq	%rsi, %rdi
	addq	$8, %rdi
	movq	%rdi, -16(%rbp)
	movq	-16(%rbp), %rdi
	.loc	7 34 68                 ## /Applications/Xcode.app/Contents/Developer/Toolchains/XcodeDefault.xctoolchain/usr/bin/../include/c++/v1/__mutex_base:34:68
Ltmp9:
	movq	%rdi, -8(%rbp)
	movq	-8(%rbp), %rdi
	.loc	7 34 41 is_stmt 0       ## /Applications/Xcode.app/Contents/Developer/Toolchains/XcodeDefault.xctoolchain/usr/bin/../include/c++/v1/__mutex_base:34:41
Ltmp10:
	movq	$850045863, (%rdi)      ## imm = 0x32AAABA7
	movq	%rdi, %r9
	addq	$8, %r9
	movq	%rdi, -136(%rbp)        ## 8-byte Spill
	movq	%r9, %rdi
	movq	%rsi, -144(%rbp)        ## 8-byte Spill
	movl	%eax, %esi
	movq	%rdx, -152(%rbp)        ## 8-byte Spill
	movq	%r8, %rdx
	movl	%eax, -156(%rbp)        ## 4-byte Spill
	callq	_memset
	movq	-136(%rbp), %rdx        ## 8-byte Reload
	movb	$0, 8(%rdx)
Ltmp11:
	.loc	31 11 12 is_stmt 1      ## /Users/ayrtex/Documents/Habilite/NeoKI/NeoKI/semaphore.cpp:11:12
	movq	-144(%rbp), %rdi        ## 8-byte Reload
	addq	$72, %rdi
	movq	%rdi, -32(%rbp)
	movq	-32(%rbp), %rdi
	.loc	7 273 70                ## /Applications/Xcode.app/Contents/Developer/Toolchains/XcodeDefault.xctoolchain/usr/bin/../include/c++/v1/__mutex_base:273:70
Ltmp12:
	movq	%rdi, -24(%rbp)
	movq	-24(%rbp), %rdi
	.loc	7 273 44 is_stmt 0      ## /Applications/Xcode.app/Contents/Developer/Toolchains/XcodeDefault.xctoolchain/usr/bin/../include/c++/v1/__mutex_base:273:44
Ltmp13:
	movq	$1018212795, (%rdi)     ## imm = 0x3CB0B1BB
	movq	%rdi, %r8
	addq	$8, %r8
	movq	%rdi, -168(%rbp)        ## 8-byte Spill
	movq	%r8, %rdi
	movl	-156(%rbp), %esi        ## 4-byte Reload
	movq	-152(%rbp), %rdx        ## 8-byte Reload
	callq	_memset
	movq	-168(%rbp), %rdx        ## 8-byte Reload
	movb	$0, 8(%rdx)
Ltmp14:
## BB#1:
	.loc	31 14 1 is_stmt 1       ## /Users/ayrtex/Documents/Habilite/NeoKI/NeoKI/semaphore.cpp:14:1
	addq	$176, %rsp
	popq	%rbp
	retq
Ltmp15:
Lfunc_end0:
	.cfi_endproc

	.globl	__ZN9SemaphoreC1Em
	.align	4, 0x90
__ZN9SemaphoreC1Em:                     ## @_ZN9SemaphoreC1Em
Lfunc_begin1:
	.loc	31 12 0                 ## /Users/ayrtex/Documents/Habilite/NeoKI/NeoKI/semaphore.cpp:12:0
	.cfi_startproc
## BB#0:
	pushq	%rbp
Ltmp16:
	.cfi_def_cfa_offset 16
Ltmp17:
	.cfi_offset %rbp, -16
	movq	%rsp, %rbp
Ltmp18:
	.cfi_def_cfa_register %rbp
	subq	$16, %rsp
	movq	%rdi, -8(%rbp)
	movq	%rsi, -16(%rbp)
	movq	-8(%rbp), %rdi
	.loc	31 12 1 prologue_end    ## /Users/ayrtex/Documents/Habilite/NeoKI/NeoKI/semaphore.cpp:12:1
Ltmp19:
	movq	-16(%rbp), %rsi
	callq	__ZN9SemaphoreC2Em
	.loc	31 14 1                 ## /Users/ayrtex/Documents/Habilite/NeoKI/NeoKI/semaphore.cpp:14:1
	addq	$16, %rsp
	popq	%rbp
	retq
Ltmp20:
Lfunc_end1:
	.cfi_endproc

	.globl	__ZN9Semaphore2upEv
	.align	4, 0x90
__ZN9Semaphore2upEv:                    ## @_ZN9Semaphore2upEv
Lfunc_begin2:
	.loc	31 17 0                 ## /Users/ayrtex/Documents/Habilite/NeoKI/NeoKI/semaphore.cpp:17:0
	.cfi_startproc
## BB#0:
	pushq	%rbp
Ltmp21:
	.cfi_def_cfa_offset 16
Ltmp22:
	.cfi_offset %rbp, -16
	movq	%rsp, %rbp
Ltmp23:
	.cfi_def_cfa_register %rbp
	subq	$160, %rsp
	##DEBUG_VALUE: up:this <- undef
	movq	%rdi, -104(%rbp)
	movq	%rdi, %rax
	.loc	31 18 38 prologue_end   ## /Users/ayrtex/Documents/Habilite/NeoKI/NeoKI/semaphore.cpp:18:38
Ltmp24:
	movq	%rdi, %rcx
	addq	$8, %rcx
	leaq	-120(%rbp), %rdx
	.loc	31 18 34 is_stmt 0      ## /Users/ayrtex/Documents/Habilite/NeoKI/NeoKI/semaphore.cpp:18:34
	movq	%rdx, -88(%rbp)
	movq	%rcx, -96(%rbp)
	movq	-88(%rbp), %rdx
	.loc	7 110 37 is_stmt 1      ## /Applications/Xcode.app/Contents/Developer/Toolchains/XcodeDefault.xctoolchain/usr/bin/../include/c++/v1/__mutex_base:110:37
Ltmp25:
	movq	%rdx, -72(%rbp)
	movq	%rcx, -80(%rbp)
	movq	-72(%rbp), %rdx
	.loc	7 110 11 is_stmt 0      ## /Applications/Xcode.app/Contents/Developer/Toolchains/XcodeDefault.xctoolchain/usr/bin/../include/c++/v1/__mutex_base:110:11
Ltmp26:
	movq	%rcx, (%rdx)
	.loc	7 110 23                ## /Applications/Xcode.app/Contents/Developer/Toolchains/XcodeDefault.xctoolchain/usr/bin/../include/c++/v1/__mutex_base:110:23
	movb	$1, 8(%rdx)
	.loc	7 110 38                ## /Applications/Xcode.app/Contents/Developer/Toolchains/XcodeDefault.xctoolchain/usr/bin/../include/c++/v1/__mutex_base:110:38
Ltmp27:
	movq	(%rdx), %rcx
	movq	%rdi, -128(%rbp)        ## 8-byte Spill
	movq	%rcx, %rdi
	movq	%rax, -136(%rbp)        ## 8-byte Spill
	callq	__ZNSt3__15mutex4lockEv
Ltmp28:
	.loc	31 19 5 is_stmt 1       ## /Users/ayrtex/Documents/Habilite/NeoKI/NeoKI/semaphore.cpp:19:5
	movq	-128(%rbp), %rax        ## 8-byte Reload
	movq	%rax, -64(%rbp)
	.loc	2 967 57                ## /Applications/Xcode.app/Contents/Developer/Toolchains/XcodeDefault.xctoolchain/usr/bin/../include/c++/v1/atomic:967:57
Ltmp29:
	movq	%rax, -24(%rbp)
	movq	$1, -32(%rbp)
	movl	$5, -36(%rbp)
	movq	-24(%rbp), %rcx
	.loc	2 930 53                ## /Applications/Xcode.app/Contents/Developer/Toolchains/XcodeDefault.xctoolchain/usr/bin/../include/c++/v1/atomic:930:53
Ltmp30:
	movq	-32(%rbp), %rdx
	.loc	2 930 17 is_stmt 0      ## /Applications/Xcode.app/Contents/Developer/Toolchains/XcodeDefault.xctoolchain/usr/bin/../include/c++/v1/atomic:930:17
	movq	%rdx, -48(%rbp)
	movl	$4, %esi
	movl	%esi, %edx
	xorl	%esi, %esi
	movb	%sil, %r8b
	testb	%r8b, %r8b
	movq	%rcx, -144(%rbp)        ## 8-byte Spill
	movq	%rdx, -152(%rbp)        ## 8-byte Spill
	jne	LBB2_1
## BB#9:
	leaq	LJTI2_0(%rip), %rax
	movq	-152(%rbp), %rcx        ## 8-byte Reload
	movslq	(%rax,%rcx,4), %rdx
	addq	%rax, %rdx
	jmpq	*%rdx
LBB2_1:
	movq	-48(%rbp), %rax
	movq	-144(%rbp), %rcx        ## 8-byte Reload
	lock		xaddq	%rax, (%rcx)
	movq	%rax, -56(%rbp)
	jmp	LBB2_6
LBB2_2:
	movq	-48(%rbp), %rax
	movq	-144(%rbp), %rcx        ## 8-byte Reload
	lock		xaddq	%rax, (%rcx)
	movq	%rax, -56(%rbp)
	jmp	LBB2_6
LBB2_3:
	movq	-48(%rbp), %rax
	movq	-144(%rbp), %rcx        ## 8-byte Reload
	lock		xaddq	%rax, (%rcx)
	movq	%rax, -56(%rbp)
	jmp	LBB2_6
LBB2_4:
	movq	-48(%rbp), %rax
	movq	-144(%rbp), %rcx        ## 8-byte Reload
	lock		xaddq	%rax, (%rcx)
	movq	%rax, -56(%rbp)
	jmp	LBB2_6
LBB2_5:
	movq	-48(%rbp), %rax
	movq	-144(%rbp), %rcx        ## 8-byte Reload
	lock		xaddq	%rax, (%rcx)
	movq	%rax, -56(%rbp)
Ltmp31:
LBB2_6:                                 ## %_ZNSt3__113__atomic_baseImLb1EEppEv.exit
	.loc	31 20 5 is_stmt 1       ## /Users/ayrtex/Documents/Habilite/NeoKI/NeoKI/semaphore.cpp:20:5
	movq	-136(%rbp), %rax        ## 8-byte Reload
	addq	$72, %rax
	movq	%rax, %rdi
	callq	__ZNSt3__118condition_variable10notify_allEv
	leaq	-120(%rbp), %rax
	.loc	31 21 1                 ## /Users/ayrtex/Documents/Habilite/NeoKI/NeoKI/semaphore.cpp:21:1
	movq	%rax, -16(%rbp)
	movq	-16(%rbp), %rax
	.loc	7 130 5                 ## /Applications/Xcode.app/Contents/Developer/Toolchains/XcodeDefault.xctoolchain/usr/bin/../include/c++/v1/__mutex_base:130:5
Ltmp32:
	movq	%rax, -8(%rbp)
	movq	-8(%rbp), %rax
	.loc	7 131 13                ## /Applications/Xcode.app/Contents/Developer/Toolchains/XcodeDefault.xctoolchain/usr/bin/../include/c++/v1/__mutex_base:131:13
Ltmp33:
	testb	$1, 8(%rax)
	movq	%rax, -160(%rbp)        ## 8-byte Spill
	je	LBB2_8
## BB#7:
	.loc	7 132 13                ## /Applications/Xcode.app/Contents/Developer/Toolchains/XcodeDefault.xctoolchain/usr/bin/../include/c++/v1/__mutex_base:132:13
Ltmp34:
	movq	-160(%rbp), %rax        ## 8-byte Reload
	movq	(%rax), %rdi
	callq	__ZNSt3__15mutex6unlockEv
Ltmp35:
LBB2_8:                                 ## %_ZNSt3__111unique_lockINS_5mutexEED1Ev.exit
	.loc	31 21 1                 ## /Users/ayrtex/Documents/Habilite/NeoKI/NeoKI/semaphore.cpp:21:1
	addq	$160, %rsp
	popq	%rbp
	retq
Ltmp36:
Lfunc_end2:
	.cfi_endproc
	.align	2, 0x90
L2_0_set_2 = LBB2_2-LJTI2_0
L2_0_set_3 = LBB2_3-LJTI2_0
L2_0_set_4 = LBB2_4-LJTI2_0
L2_0_set_5 = LBB2_5-LJTI2_0
LJTI2_0:
	.long	L2_0_set_2
	.long	L2_0_set_2
	.long	L2_0_set_3
	.long	L2_0_set_4
	.long	L2_0_set_5

	.globl	__ZN9Semaphore4downEv
	.align	4, 0x90
__ZN9Semaphore4downEv:                  ## @_ZN9Semaphore4downEv
Lfunc_begin3:
	.loc	31 24 0                 ## /Users/ayrtex/Documents/Habilite/NeoKI/NeoKI/semaphore.cpp:24:0
	.cfi_startproc
## BB#0:
	pushq	%rbp
Ltmp37:
	.cfi_def_cfa_offset 16
Ltmp38:
	.cfi_offset %rbp, -16
	movq	%rsp, %rbp
Ltmp39:
	.cfi_def_cfa_register %rbp
	subq	$208, %rsp
	leaq	-152(%rbp), %rax
	movq	%rdi, -136(%rbp)
	movq	-136(%rbp), %rdi
Ltmp40:
	##DEBUG_VALUE: down:lck <- %RAX
	.loc	31 25 38 prologue_end   ## /Users/ayrtex/Documents/Habilite/NeoKI/NeoKI/semaphore.cpp:25:38
	movq	%rdi, %rcx
	addq	$8, %rcx
	.loc	31 25 34 is_stmt 0      ## /Users/ayrtex/Documents/Habilite/NeoKI/NeoKI/semaphore.cpp:25:34
	movq	%rax, -120(%rbp)
	movq	%rcx, -128(%rbp)
	movq	-120(%rbp), %rax
Ltmp41:
	.loc	7 110 37 is_stmt 1      ## /Applications/Xcode.app/Contents/Developer/Toolchains/XcodeDefault.xctoolchain/usr/bin/../include/c++/v1/__mutex_base:110:37
	movq	-128(%rbp), %rcx
	movq	%rax, -104(%rbp)
	movq	%rcx, -112(%rbp)
	movq	-104(%rbp), %rax
	.loc	7 110 17 is_stmt 0      ## /Applications/Xcode.app/Contents/Developer/Toolchains/XcodeDefault.xctoolchain/usr/bin/../include/c++/v1/__mutex_base:110:17
Ltmp42:
	movq	-112(%rbp), %rcx
	.loc	7 110 11                ## /Applications/Xcode.app/Contents/Developer/Toolchains/XcodeDefault.xctoolchain/usr/bin/../include/c++/v1/__mutex_base:110:11
	movq	%rcx, (%rax)
	.loc	7 110 23                ## /Applications/Xcode.app/Contents/Developer/Toolchains/XcodeDefault.xctoolchain/usr/bin/../include/c++/v1/__mutex_base:110:23
	movb	$1, 8(%rax)
	.loc	7 110 38                ## /Applications/Xcode.app/Contents/Developer/Toolchains/XcodeDefault.xctoolchain/usr/bin/../include/c++/v1/__mutex_base:110:38
Ltmp43:
	movq	(%rax), %rax
	movq	%rdi, -160(%rbp)        ## 8-byte Spill
	movq	%rax, %rdi
	callq	__ZNSt3__15mutex4lockEv
Ltmp44:
LBB3_1:                                 ## =>This Inner Loop Header: Depth=1
	.loc	31 26 12 is_stmt 1      ## /Users/ayrtex/Documents/Habilite/NeoKI/NeoKI/semaphore.cpp:26:12
	movq	-160(%rbp), %rax        ## 8-byte Reload
	movq	%rax, -96(%rbp)
	.loc	2 852 53                ## /Applications/Xcode.app/Contents/Developer/Toolchains/XcodeDefault.xctoolchain/usr/bin/../include/c++/v1/atomic:852:53
Ltmp45:
	movq	%rax, -72(%rbp)
	movl	$5, -76(%rbp)
	movq	-72(%rbp), %rcx
	movl	$5, %edx
	.loc	2 848 17                ## /Applications/Xcode.app/Contents/Developer/Toolchains/XcodeDefault.xctoolchain/usr/bin/../include/c++/v1/atomic:848:17
Ltmp46:
	xorl	%esi, %esi
	movb	%sil, %dil
	testb	%dil, %dil
	movq	%rcx, -168(%rbp)        ## 8-byte Spill
	movl	%edx, -172(%rbp)        ## 4-byte Spill
	jne	LBB3_3
	jmp	LBB3_16
LBB3_16:                                ##   in Loop: Header=BB3_1 Depth=1
	movl	-172(%rbp), %eax        ## 4-byte Reload
	subl	$5, %eax
	movl	%eax, -176(%rbp)        ## 4-byte Spill
	je	LBB3_4
	jmp	LBB3_2
LBB3_2:                                 ##   in Loop: Header=BB3_1 Depth=1
	movq	-168(%rbp), %rax        ## 8-byte Reload
	movq	(%rax), %rcx
	movq	%rcx, -88(%rbp)
	jmp	LBB3_5
LBB3_3:                                 ##   in Loop: Header=BB3_1 Depth=1
	movq	-168(%rbp), %rax        ## 8-byte Reload
	movq	(%rax), %rcx
	movq	%rcx, -88(%rbp)
	jmp	LBB3_5
LBB3_4:                                 ##   in Loop: Header=BB3_1 Depth=1
	movq	-168(%rbp), %rax        ## 8-byte Reload
	movq	(%rax), %rcx
	movq	%rcx, -88(%rbp)
Ltmp47:
LBB3_5:                                 ## %_ZNKSt3__113__atomic_baseImLb0EEcvmEv.exit
                                        ##   in Loop: Header=BB3_1 Depth=1
	.loc	31 26 15                ## /Users/ayrtex/Documents/Habilite/NeoKI/NeoKI/semaphore.cpp:26:15
	cmpq	$0, -88(%rbp)
	.loc	31 26 5 is_stmt 0       ## /Users/ayrtex/Documents/Habilite/NeoKI/NeoKI/semaphore.cpp:26:5
	jne	LBB3_7
## BB#6:                                ##   in Loop: Header=BB3_1 Depth=1
	leaq	-152(%rbp), %rsi
	.loc	31 27 9 is_stmt 1       ## /Users/ayrtex/Documents/Habilite/NeoKI/NeoKI/semaphore.cpp:27:9
Ltmp48:
	movq	-160(%rbp), %rax        ## 8-byte Reload
	addq	$72, %rax
	movq	%rax, %rdi
	callq	__ZNSt3__118condition_variable4waitERNS_11unique_lockINS_5mutexEEE
Ltmp49:
	.loc	31 26 5                 ## /Users/ayrtex/Documents/Habilite/NeoKI/NeoKI/semaphore.cpp:26:5
	jmp	LBB3_1
LBB3_7:
	.loc	31 29 5                 ## /Users/ayrtex/Documents/Habilite/NeoKI/NeoKI/semaphore.cpp:29:5
	movq	-160(%rbp), %rax        ## 8-byte Reload
	movq	%rax, -48(%rbp)
	.loc	2 971 57                ## /Applications/Xcode.app/Contents/Developer/Toolchains/XcodeDefault.xctoolchain/usr/bin/../include/c++/v1/atomic:971:57
Ltmp50:
	movq	%rax, -8(%rbp)
	movq	$1, -16(%rbp)
	movl	$5, -20(%rbp)
	movq	-8(%rbp), %rcx
	.loc	2 936 53                ## /Applications/Xcode.app/Contents/Developer/Toolchains/XcodeDefault.xctoolchain/usr/bin/../include/c++/v1/atomic:936:53
Ltmp51:
	movq	-16(%rbp), %rdx
	.loc	2 936 17 is_stmt 0      ## /Applications/Xcode.app/Contents/Developer/Toolchains/XcodeDefault.xctoolchain/usr/bin/../include/c++/v1/atomic:936:17
	movq	%rdx, -32(%rbp)
	movl	$4, %esi
	movl	%esi, %edx
	xorl	%esi, %esi
	movb	%sil, %dil
	testb	%dil, %dil
	movq	%rcx, -184(%rbp)        ## 8-byte Spill
	movq	%rdx, -192(%rbp)        ## 8-byte Spill
	jne	LBB3_8
## BB#17:
	leaq	LJTI3_0(%rip), %rax
	movq	-192(%rbp), %rcx        ## 8-byte Reload
	movslq	(%rax,%rcx,4), %rdx
	addq	%rax, %rdx
	jmpq	*%rdx
LBB3_8:
	movq	-32(%rbp), %rax
	negq	%rax
	movq	-184(%rbp), %rcx        ## 8-byte Reload
	lock		xaddq	%rax, (%rcx)
	movq	%rax, -40(%rbp)
	jmp	LBB3_13
LBB3_9:
	movq	-32(%rbp), %rax
	negq	%rax
	movq	-184(%rbp), %rcx        ## 8-byte Reload
	lock		xaddq	%rax, (%rcx)
	movq	%rax, -40(%rbp)
	jmp	LBB3_13
LBB3_10:
	movq	-32(%rbp), %rax
	negq	%rax
	movq	-184(%rbp), %rcx        ## 8-byte Reload
	lock		xaddq	%rax, (%rcx)
	movq	%rax, -40(%rbp)
	jmp	LBB3_13
LBB3_11:
	movq	-32(%rbp), %rax
	negq	%rax
	movq	-184(%rbp), %rcx        ## 8-byte Reload
	lock		xaddq	%rax, (%rcx)
	movq	%rax, -40(%rbp)
	jmp	LBB3_13
LBB3_12:
	movq	-32(%rbp), %rax
	negq	%rax
	movq	-184(%rbp), %rcx        ## 8-byte Reload
	lock		xaddq	%rax, (%rcx)
	movq	%rax, -40(%rbp)
Ltmp52:
LBB3_13:                                ## %_ZNSt3__113__atomic_baseImLb1EEmmEv.exit
	leaq	-152(%rbp), %rax
	.loc	31 30 1 is_stmt 1       ## /Users/ayrtex/Documents/Habilite/NeoKI/NeoKI/semaphore.cpp:30:1
	movq	%rax, -64(%rbp)
	movq	-64(%rbp), %rax
	.loc	7 130 5                 ## /Applications/Xcode.app/Contents/Developer/Toolchains/XcodeDefault.xctoolchain/usr/bin/../include/c++/v1/__mutex_base:130:5
Ltmp53:
	movq	%rax, -56(%rbp)
	movq	-56(%rbp), %rax
	.loc	7 131 13                ## /Applications/Xcode.app/Contents/Developer/Toolchains/XcodeDefault.xctoolchain/usr/bin/../include/c++/v1/__mutex_base:131:13
Ltmp54:
	testb	$1, 8(%rax)
	movq	%rax, -200(%rbp)        ## 8-byte Spill
	je	LBB3_15
## BB#14:
	.loc	7 132 13                ## /Applications/Xcode.app/Contents/Developer/Toolchains/XcodeDefault.xctoolchain/usr/bin/../include/c++/v1/__mutex_base:132:13
Ltmp55:
	movq	-200(%rbp), %rax        ## 8-byte Reload
	movq	(%rax), %rdi
	callq	__ZNSt3__15mutex6unlockEv
Ltmp56:
LBB3_15:                                ## %_ZNSt3__111unique_lockINS_5mutexEED1Ev.exit
	.loc	31 30 1                 ## /Users/ayrtex/Documents/Habilite/NeoKI/NeoKI/semaphore.cpp:30:1
	addq	$208, %rsp
	popq	%rbp
	retq
Ltmp57:
Lfunc_end3:
	.cfi_endproc
	.align	2, 0x90
L3_0_set_9 = LBB3_9-LJTI3_0
L3_0_set_10 = LBB3_10-LJTI3_0
L3_0_set_11 = LBB3_11-LJTI3_0
L3_0_set_12 = LBB3_12-LJTI3_0
LJTI3_0:
	.long	L3_0_set_9
	.long	L3_0_set_9
	.long	L3_0_set_10
	.long	L3_0_set_11
	.long	L3_0_set_12
