	.section	__TEXT,__text,regular,pure_instructions
	.macosx_version_min 10, 11
	.file	1 "/Applications/Xcode.app/Contents/Developer/Toolchains/XcodeDefault.xctoolchain/usr/bin/../include/c++/v1" "__config"
	.file	2 "/Applications/Xcode.app/Contents/Developer/Toolchains/XcodeDefault.xctoolchain/usr/bin/../include/c++/v1" "atomic"
	.file	3 "/Applications/Xcode.app/Contents/Developer/Platforms/MacOSX.platform/Developer/SDKs/MacOSX10.11.sdk/usr/include" "time.h"
	.file	4 "/Users/ayrtex/Documents/Habilite/NeoKI/NeoKI" "semaphore.hpp"
	.file	5 "/Applications/Xcode.app/Contents/Developer/Platforms/MacOSX.platform/Developer/SDKs/MacOSX10.11.sdk/usr/include/sys/_pthread" "_pthread_types.h"
	.file	6 "/Applications/Xcode.app/Contents/Developer/Platforms/MacOSX.platform/Developer/SDKs/MacOSX10.11.sdk/usr/include/sys/_pthread" "_pthread_mutex_t.h"
	.file	7 "/Applications/Xcode.app/Contents/Developer/Toolchains/XcodeDefault.xctoolchain/usr/bin/../include/c++/v1" "__mutex_base"
	.file	8 "/Applications/Xcode.app/Contents/Developer/Platforms/MacOSX.platform/Developer/SDKs/MacOSX10.11.sdk/usr/include/sys/_pthread" "_pthread_cond_t.h"
	.file	9 "/Applications/Xcode.app/Contents/Developer/Toolchains/XcodeDefault.xctoolchain/usr/bin/../include/c++/v1" "chrono"
	.file	10 "/Applications/Xcode.app/Contents/Developer/Platforms/MacOSX.platform/Developer/SDKs/MacOSX10.11.sdk/usr/include/_types" "_intmax_t.h"
	.file	11 "/Applications/Xcode.app/Contents/Developer/Toolchains/XcodeDefault.xctoolchain/usr/bin/../include/c++/v1" "ratio"
	.file	12 "/Applications/Xcode.app/Contents/Developer/Platforms/MacOSX.platform/Developer/SDKs/MacOSX10.11.sdk/usr/include/i386" "_types.h"
	.file	13 "/Applications/Xcode.app/Contents/Developer/Platforms/MacOSX.platform/Developer/SDKs/MacOSX10.11.sdk/usr/include/sys/_types" "_time_t.h"
	.file	14 "/Applications/Xcode.app/Contents/Developer/Toolchains/XcodeDefault.xctoolchain/usr/bin/../lib/clang/7.3.0/include" "stddef.h"
	.file	15 "/Applications/Xcode.app/Contents/Developer/Toolchains/XcodeDefault.xctoolchain/usr/bin/../lib/clang/7.3.0/include" "__stddef_max_align_t.h"
	.file	16 "/Applications/Xcode.app/Contents/Developer/Platforms/MacOSX.platform/Developer/SDKs/MacOSX10.11.sdk/usr/include/sys/_types" "_int8_t.h"
	.file	17 "/Applications/Xcode.app/Contents/Developer/Platforms/MacOSX.platform/Developer/SDKs/MacOSX10.11.sdk/usr/include/sys/_types" "_int16_t.h"
	.file	18 "/Applications/Xcode.app/Contents/Developer/Platforms/MacOSX.platform/Developer/SDKs/MacOSX10.11.sdk/usr/include/sys/_types" "_int32_t.h"
	.file	19 "/Applications/Xcode.app/Contents/Developer/Platforms/MacOSX.platform/Developer/SDKs/MacOSX10.11.sdk/usr/include/sys/_types" "_int64_t.h"
	.file	20 "/Applications/Xcode.app/Contents/Developer/Platforms/MacOSX.platform/Developer/SDKs/MacOSX10.11.sdk/usr/include/_types" "_uint8_t.h"
	.file	21 "/Applications/Xcode.app/Contents/Developer/Platforms/MacOSX.platform/Developer/SDKs/MacOSX10.11.sdk/usr/include/_types" "_uint16_t.h"
	.file	22 "/Applications/Xcode.app/Contents/Developer/Platforms/MacOSX.platform/Developer/SDKs/MacOSX10.11.sdk/usr/include/_types" "_uint32_t.h"
	.file	23 "/Applications/Xcode.app/Contents/Developer/Platforms/MacOSX.platform/Developer/SDKs/MacOSX10.11.sdk/usr/include/_types" "_uint64_t.h"
	.file	24 "/Applications/Xcode.app/Contents/Developer/Platforms/MacOSX.platform/Developer/SDKs/MacOSX10.11.sdk/usr/include" "stdint.h"
	.file	25 "/Applications/Xcode.app/Contents/Developer/Platforms/MacOSX.platform/Developer/SDKs/MacOSX10.11.sdk/usr/include/sys/_types" "_intptr_t.h"
	.file	26 "/Applications/Xcode.app/Contents/Developer/Platforms/MacOSX.platform/Developer/SDKs/MacOSX10.11.sdk/usr/include/sys/_types" "_uintptr_t.h"
	.file	27 "/Applications/Xcode.app/Contents/Developer/Platforms/MacOSX.platform/Developer/SDKs/MacOSX10.11.sdk/usr/include/_types" "_uintmax_t.h"
	.file	28 "/Applications/Xcode.app/Contents/Developer/Platforms/MacOSX.platform/Developer/SDKs/MacOSX10.11.sdk/usr/include/sys/_types" "_clock_t.h"
	.file	29 "/Applications/Xcode.app/Contents/Developer/Toolchains/XcodeDefault.xctoolchain/usr/bin/../include/c++/v1" "tuple"
	.file	30 "/Applications/Xcode.app/Contents/Developer/Platforms/MacOSX.platform/Developer/SDKs/MacOSX10.11.sdk/usr/include" "string.h"
	.private_extern	__ZN9SemaphoreC2Em
	.globl	__ZN9SemaphoreC2Em
	.align	1, 0x90
__ZN9SemaphoreC2Em:                     ## @_ZN9SemaphoreC2Em
Lfunc_begin0:
	.file	31 "/Users/ayrtex/Documents/Habilite/NeoKI/NeoKI" "semaphore.cpp"
	.loc	31 12 0                 ## /Users/ayrtex/Documents/Habilite/NeoKI/NeoKI/semaphore.cpp:12:0
	.cfi_startproc
## BB#0:
	pushq	%rbp
Ltmp0:
	.cfi_def_cfa_offset 16
Ltmp1:
	.cfi_offset %rbp, -16
	movq	%rsp, %rbp
Ltmp2:
	.cfi_def_cfa_register %rbp
	##DEBUG_VALUE: Semaphore:this <- %RDI
	##DEBUG_VALUE: Semaphore:n <- %RSI
Ltmp3:
	##DEBUG_VALUE: atomic:__d <- %RSI
	##DEBUG_VALUE: atomic:__d <- %RSI
	##DEBUG_VALUE: __atomic_base:__d <- %RSI
	##DEBUG_VALUE: __atomic_base:__d <- %RSI
	.loc	2 900 58 prologue_end   ## /Applications/Xcode.app/Contents/Developer/Toolchains/XcodeDefault.xctoolchain/usr/bin/../include/c++/v1/atomic:900:58
	movq	%rsi, (%rdi)
Ltmp4:
	.loc	7 34 41                 ## /Applications/Xcode.app/Contents/Developer/Toolchains/XcodeDefault.xctoolchain/usr/bin/../include/c++/v1/__mutex_base:34:41
	movq	$850045863, 8(%rdi)     ## imm = 0x32AAABA7
	movq	$0, 64(%rdi)
	movq	$0, 56(%rdi)
	movq	$0, 48(%rdi)
	movq	$0, 40(%rdi)
	movq	$0, 32(%rdi)
	movq	$0, 24(%rdi)
	movq	$0, 16(%rdi)
Ltmp5:
	.loc	7 273 44                ## /Applications/Xcode.app/Contents/Developer/Toolchains/XcodeDefault.xctoolchain/usr/bin/../include/c++/v1/__mutex_base:273:44
	movq	$1018212795, 72(%rdi)   ## imm = 0x3CB0B1BB
	movq	$0, 112(%rdi)
	movq	$0, 104(%rdi)
	movq	$0, 96(%rdi)
	movq	$0, 88(%rdi)
	movq	$0, 80(%rdi)
Ltmp6:
	.loc	31 14 1                 ## /Users/ayrtex/Documents/Habilite/NeoKI/NeoKI/semaphore.cpp:14:1
	popq	%rbp
	retq
Ltmp7:
Lfunc_end0:
	.cfi_endproc

	.private_extern	__ZN9SemaphoreC1Em
	.globl	__ZN9SemaphoreC1Em
	.align	1, 0x90
__ZN9SemaphoreC1Em:                     ## @_ZN9SemaphoreC1Em
Lfunc_begin1:
	.loc	31 12 0                 ## /Users/ayrtex/Documents/Habilite/NeoKI/NeoKI/semaphore.cpp:12:0
	.cfi_startproc
## BB#0:
	pushq	%rbp
Ltmp8:
	.cfi_def_cfa_offset 16
Ltmp9:
	.cfi_offset %rbp, -16
	movq	%rsp, %rbp
Ltmp10:
	.cfi_def_cfa_register %rbp
	##DEBUG_VALUE: Semaphore:this <- %RDI
	##DEBUG_VALUE: Semaphore:n <- %RSI
Ltmp11:
	##DEBUG_VALUE: Semaphore:this <- %RDI
	##DEBUG_VALUE: Semaphore:n <- %RSI
	##DEBUG_VALUE: atomic:__d <- %RSI
	##DEBUG_VALUE: atomic:__d <- %RSI
	##DEBUG_VALUE: __atomic_base:__d <- %RSI
	##DEBUG_VALUE: __atomic_base:__d <- %RSI
	.loc	2 900 58 prologue_end   ## /Applications/Xcode.app/Contents/Developer/Toolchains/XcodeDefault.xctoolchain/usr/bin/../include/c++/v1/atomic:900:58
	movq	%rsi, (%rdi)
Ltmp12:
	.loc	7 34 41                 ## /Applications/Xcode.app/Contents/Developer/Toolchains/XcodeDefault.xctoolchain/usr/bin/../include/c++/v1/__mutex_base:34:41
	movq	$850045863, 8(%rdi)     ## imm = 0x32AAABA7
	movq	$0, 64(%rdi)
	movq	$0, 56(%rdi)
	movq	$0, 48(%rdi)
	movq	$0, 40(%rdi)
	movq	$0, 32(%rdi)
	movq	$0, 24(%rdi)
	movq	$0, 16(%rdi)
Ltmp13:
	.loc	7 273 44                ## /Applications/Xcode.app/Contents/Developer/Toolchains/XcodeDefault.xctoolchain/usr/bin/../include/c++/v1/__mutex_base:273:44
	movq	$1018212795, 72(%rdi)   ## imm = 0x3CB0B1BB
	movq	$0, 112(%rdi)
	movq	$0, 104(%rdi)
	movq	$0, 96(%rdi)
	movq	$0, 88(%rdi)
	movq	$0, 80(%rdi)
Ltmp14:
	.loc	31 14 1                 ## /Users/ayrtex/Documents/Habilite/NeoKI/NeoKI/semaphore.cpp:14:1
	popq	%rbp
	retq
Ltmp15:
Lfunc_end1:
	.cfi_endproc

	.private_extern	__ZN9Semaphore2upEv
	.globl	__ZN9Semaphore2upEv
	.align	1, 0x90
__ZN9Semaphore2upEv:                    ## @_ZN9Semaphore2upEv
Lfunc_begin2:
	.loc	31 17 0                 ## /Users/ayrtex/Documents/Habilite/NeoKI/NeoKI/semaphore.cpp:17:0
	.cfi_startproc
## BB#0:                                ## %_ZNSt3__111unique_lockINS_5mutexEED1Ev.exit
	pushq	%rbp
Ltmp16:
	.cfi_def_cfa_offset 16
Ltmp17:
	.cfi_offset %rbp, -16
	movq	%rsp, %rbp
Ltmp18:
	.cfi_def_cfa_register %rbp
	pushq	%r14
	pushq	%rbx
Ltmp19:
	.cfi_offset %rbx, -32
Ltmp20:
	.cfi_offset %r14, -24
	##DEBUG_VALUE: up:this <- %RDI
	movq	%rdi, %rbx
Ltmp21:
	##DEBUG_VALUE: up:this <- %RBX
	.loc	31 18 38 prologue_end   ## /Users/ayrtex/Documents/Habilite/NeoKI/NeoKI/semaphore.cpp:18:38
	leaq	8(%rbx), %r14
Ltmp22:
	##DEBUG_VALUE: unique_lock:__m <- %R14
	##DEBUG_VALUE: unique_lock:__m <- %R14
	.loc	7 110 38                ## /Applications/Xcode.app/Contents/Developer/Toolchains/XcodeDefault.xctoolchain/usr/bin/../include/c++/v1/__mutex_base:110:38
	movq	%r14, %rdi
	callq	__ZNSt3__15mutex4lockEv
Ltmp23:
	##DEBUG_VALUE: fetch_add:__m <- 5
	##DEBUG_VALUE: fetch_add:__op <- 1
	.loc	2 930 17                ## /Applications/Xcode.app/Contents/Developer/Toolchains/XcodeDefault.xctoolchain/usr/bin/../include/c++/v1/atomic:930:17
	lock		incq	(%rbx)
Ltmp24:
	.loc	31 20 5                 ## /Users/ayrtex/Documents/Habilite/NeoKI/NeoKI/semaphore.cpp:20:5
	addq	$72, %rbx
Ltmp25:
	movq	%rbx, %rdi
	callq	__ZNSt3__118condition_variable10notify_allEv
	.loc	7 132 13                ## /Applications/Xcode.app/Contents/Developer/Toolchains/XcodeDefault.xctoolchain/usr/bin/../include/c++/v1/__mutex_base:132:13
Ltmp26:
	movq	%r14, %rdi
	popq	%rbx
	popq	%r14
Ltmp27:
	popq	%rbp
	jmp	__ZNSt3__15mutex6unlockEv ## TAILCALL
Ltmp28:
Lfunc_end2:
	.cfi_endproc

	.private_extern	__ZN9Semaphore4downEv
	.globl	__ZN9Semaphore4downEv
	.align	1, 0x90
__ZN9Semaphore4downEv:                  ## @_ZN9Semaphore4downEv
Lfunc_begin3:
	.loc	31 24 0                 ## /Users/ayrtex/Documents/Habilite/NeoKI/NeoKI/semaphore.cpp:24:0
	.cfi_startproc
## BB#0:
	pushq	%rbp
Ltmp29:
	.cfi_def_cfa_offset 16
Ltmp30:
	.cfi_offset %rbp, -16
	movq	%rsp, %rbp
Ltmp31:
	.cfi_def_cfa_register %rbp
	pushq	%r15
	pushq	%r14
	pushq	%rbx
	subq	$24, %rsp
Ltmp32:
	.cfi_offset %rbx, -40
Ltmp33:
	.cfi_offset %r14, -32
Ltmp34:
	.cfi_offset %r15, -24
	##DEBUG_VALUE: down:this <- %RDI
	movq	%rdi, %r14
Ltmp35:
	##DEBUG_VALUE: down:this <- %R14
	.loc	31 25 38 prologue_end   ## /Users/ayrtex/Documents/Habilite/NeoKI/NeoKI/semaphore.cpp:25:38
	leaq	8(%r14), %rdi
Ltmp36:
	##DEBUG_VALUE: unique_lock:__m <- %RDI
	##DEBUG_VALUE: unique_lock:__m <- %RDI
	.loc	7 110 11                ## /Applications/Xcode.app/Contents/Developer/Toolchains/XcodeDefault.xctoolchain/usr/bin/../include/c++/v1/__mutex_base:110:11
	movq	%rdi, -40(%rbp)
	.loc	7 110 23 is_stmt 0      ## /Applications/Xcode.app/Contents/Developer/Toolchains/XcodeDefault.xctoolchain/usr/bin/../include/c++/v1/__mutex_base:110:23
	movb	$1, -32(%rbp)
	.loc	7 110 38                ## /Applications/Xcode.app/Contents/Developer/Toolchains/XcodeDefault.xctoolchain/usr/bin/../include/c++/v1/__mutex_base:110:38
Ltmp37:
	callq	__ZNSt3__15mutex4lockEv
Ltmp38:
	##DEBUG_VALUE: load:__m <- 5
	.loc	2 848 17 is_stmt 1      ## /Applications/Xcode.app/Contents/Developer/Toolchains/XcodeDefault.xctoolchain/usr/bin/../include/c++/v1/atomic:848:17
	movq	(%r14), %rax
Ltmp39:
	.loc	31 26 5                 ## /Users/ayrtex/Documents/Habilite/NeoKI/NeoKI/semaphore.cpp:26:5
	testq	%rax, %rax
	jne	LBB3_3
Ltmp40:
## BB#1:                                ## %.lr.ph
	##DEBUG_VALUE: down:this <- %R14
	.loc	31 27 9                 ## /Users/ayrtex/Documents/Habilite/NeoKI/NeoKI/semaphore.cpp:27:9
	leaq	72(%r14), %rbx
	leaq	-40(%rbp), %r15
Ltmp41:
LBB3_2:                                 ## =>This Inner Loop Header: Depth=1
	##DEBUG_VALUE: down:this <- %R14
	##DEBUG_VALUE: down:lck <- [%R15+0]
	movq	%rbx, %rdi
	movq	%r15, %rsi
	callq	__ZNSt3__118condition_variable4waitERNS_11unique_lockINS_5mutexEEE
Ltmp42:
	##DEBUG_VALUE: load:__m <- 5
	.loc	2 848 17                ## /Applications/Xcode.app/Contents/Developer/Toolchains/XcodeDefault.xctoolchain/usr/bin/../include/c++/v1/atomic:848:17
	movq	(%r14), %rax
Ltmp43:
	.loc	31 26 15                ## /Users/ayrtex/Documents/Habilite/NeoKI/NeoKI/semaphore.cpp:26:15
	testq	%rax, %rax
	.loc	31 26 5 is_stmt 0       ## /Users/ayrtex/Documents/Habilite/NeoKI/NeoKI/semaphore.cpp:26:5
	je	LBB3_2
Ltmp44:
LBB3_3:                                 ## %._crit_edge
	##DEBUG_VALUE: down:this <- %R14
	##DEBUG_VALUE: fetch_sub:__op <- 1
	##DEBUG_VALUE: fetch_sub:__m <- 5
	.loc	2 936 17 is_stmt 1      ## /Applications/Xcode.app/Contents/Developer/Toolchains/XcodeDefault.xctoolchain/usr/bin/../include/c++/v1/atomic:936:17
	lock		decq	(%r14)
Ltmp45:
	.loc	7 131 13                ## /Applications/Xcode.app/Contents/Developer/Toolchains/XcodeDefault.xctoolchain/usr/bin/../include/c++/v1/__mutex_base:131:13
	cmpb	$0, -32(%rbp)
	je	LBB3_5
Ltmp46:
## BB#4:
	.loc	7 132 13                ## /Applications/Xcode.app/Contents/Developer/Toolchains/XcodeDefault.xctoolchain/usr/bin/../include/c++/v1/__mutex_base:132:13
	movq	-40(%rbp), %rdi
	callq	__ZNSt3__15mutex6unlockEv
Ltmp47:
LBB3_5:                                 ## %_ZNSt3__111unique_lockINS_5mutexEED1Ev.exit
	.loc	31 30 1                 ## /Users/ayrtex/Documents/Habilite/NeoKI/NeoKI/semaphore.cpp:30:1
	addq	$24, %rsp
	popq	%rbx
	popq	%r14
	popq	%r15
	popq	%rbp
	retq
Ltmp48:
Lfunc_end3:
	.cfi_endproc
